; ModuleID = '19/1234.c'
source_filename = "19/1234.c"
target datalayout = "e-m:e-p270:32:32-p271:32:32-p272:64:64-i64:64-f80:128-n8:16:32:64-S128"
target triple = "x86_64-pc-linux-gnu"

@.str = private unnamed_addr constant [3 x i8] c"%c\00", align 1
@.str.1 = private unnamed_addr constant [4 x i8] c"%s \00", align 1
@.str.2 = private unnamed_addr constant [4 x i8] c"%s\0A\00", align 1

; Function Attrs: noinline nounwind uwtable
define dso_local void @main() #0 {
  %1 = alloca [100 x i8*], align 16
  %2 = alloca i8*, align 8
  %3 = alloca i8*, align 8
  %4 = alloca i32, align 4
  %5 = alloca i32, align 4
  %6 = alloca i32, align 4
  store i32 0, i32* %4, align 4
  store i32 0, i32* %5, align 4
  store i32 0, i32* %4, align 4
  br label %7

7:                                                ; preds = %30, %0
  %8 = load i32, i32* %4, align 4
  %9 = icmp slt i32 %8, 100
  br i1 %9, label %10, label %33

10:                                               ; preds = %7
  %11 = call noalias i8* @malloc(i64 100) #4
  %12 = load i32, i32* %4, align 4
  %13 = sext i32 %12 to i64
  %14 = getelementptr inbounds [100 x i8*], [100 x i8*]* %1, i64 0, i64 %13
  store i8* %11, i8** %14, align 8
  store i32 0, i32* %5, align 4
  br label %15

15:                                               ; preds = %26, %10
  %16 = load i32, i32* %5, align 4
  %17 = icmp slt i32 %16, 100
  br i1 %17, label %18, label %29

18:                                               ; preds = %15
  %19 = load i32, i32* %4, align 4
  %20 = sext i32 %19 to i64
  %21 = getelementptr inbounds [100 x i8*], [100 x i8*]* %1, i64 0, i64 %20
  %22 = load i8*, i8** %21, align 8
  %23 = load i32, i32* %5, align 4
  %24 = sext i32 %23 to i64
  %25 = getelementptr inbounds i8, i8* %22, i64 %24
  store i8 0, i8* %25, align 1
  br label %26

26:                                               ; preds = %18
  %27 = load i32, i32* %5, align 4
  %28 = add nsw i32 %27, 1
  store i32 %28, i32* %5, align 4
  br label %15

29:                                               ; preds = %15
  br label %30

30:                                               ; preds = %29
  %31 = load i32, i32* %4, align 4
  %32 = add nsw i32 %31, 1
  store i32 %32, i32* %4, align 4
  br label %7

33:                                               ; preds = %7
  store i32 0, i32* %4, align 4
  br label %34

34:                                               ; preds = %84, %33
  store i32 0, i32* %5, align 4
  br label %35

35:                                               ; preds = %67, %34
  %36 = load i32, i32* %4, align 4
  %37 = sext i32 %36 to i64
  %38 = getelementptr inbounds [100 x i8*], [100 x i8*]* %1, i64 0, i64 %37
  %39 = load i8*, i8** %38, align 8
  %40 = load i32, i32* %5, align 4
  %41 = sext i32 %40 to i64
  %42 = getelementptr inbounds i8, i8* %39, i64 %41
  %43 = call i32 (i8*, ...) @__isoc99_scanf(i8* getelementptr inbounds ([3 x i8], [3 x i8]* @.str, i64 0, i64 0), i8* %42)
  %44 = load i32, i32* %4, align 4
  %45 = sext i32 %44 to i64
  %46 = getelementptr inbounds [100 x i8*], [100 x i8*]* %1, i64 0, i64 %45
  %47 = load i8*, i8** %46, align 8
  %48 = load i32, i32* %5, align 4
  %49 = sext i32 %48 to i64
  %50 = getelementptr inbounds i8, i8* %47, i64 %49
  %51 = load i8, i8* %50, align 1
  %52 = sext i8 %51 to i32
  %53 = icmp eq i32 %52, 32
  br i1 %53, label %65, label %54

54:                                               ; preds = %35
  %55 = load i32, i32* %4, align 4
  %56 = sext i32 %55 to i64
  %57 = getelementptr inbounds [100 x i8*], [100 x i8*]* %1, i64 0, i64 %56
  %58 = load i8*, i8** %57, align 8
  %59 = load i32, i32* %5, align 4
  %60 = sext i32 %59 to i64
  %61 = getelementptr inbounds i8, i8* %58, i64 %60
  %62 = load i8, i8* %61, align 1
  %63 = sext i8 %62 to i32
  %64 = icmp eq i32 %63, 10
  br i1 %64, label %65, label %66

65:                                               ; preds = %54, %35
  br label %70

66:                                               ; preds = %54
  br label %67

67:                                               ; preds = %66
  %68 = load i32, i32* %5, align 4
  %69 = add nsw i32 %68, 1
  store i32 %69, i32* %5, align 4
  br label %35

70:                                               ; preds = %65
  %71 = load i32, i32* %4, align 4
  %72 = sext i32 %71 to i64
  %73 = getelementptr inbounds [100 x i8*], [100 x i8*]* %1, i64 0, i64 %72
  %74 = load i8*, i8** %73, align 8
  %75 = load i32, i32* %5, align 4
  %76 = sext i32 %75 to i64
  %77 = getelementptr inbounds i8, i8* %74, i64 %76
  %78 = load i8, i8* %77, align 1
  %79 = sext i8 %78 to i32
  %80 = icmp eq i32 %79, 10
  br i1 %80, label %81, label %83

81:                                               ; preds = %70
  %82 = load i32, i32* %4, align 4
  store i32 %82, i32* %6, align 4
  br label %87

83:                                               ; preds = %70
  br label %84

84:                                               ; preds = %83
  %85 = load i32, i32* %4, align 4
  %86 = add nsw i32 %85, 1
  store i32 %86, i32* %4, align 4
  br label %34

87:                                               ; preds = %81
  store i32 0, i32* %4, align 4
  br label %88

88:                                               ; preds = %128, %87
  %89 = load i32, i32* %4, align 4
  %90 = load i32, i32* %6, align 4
  %91 = icmp sle i32 %89, %90
  br i1 %91, label %92, label %131

92:                                               ; preds = %88
  store i32 0, i32* %5, align 4
  br label %93

93:                                               ; preds = %124, %92
  %94 = load i32, i32* %4, align 4
  %95 = sext i32 %94 to i64
  %96 = getelementptr inbounds [100 x i8*], [100 x i8*]* %1, i64 0, i64 %95
  %97 = load i8*, i8** %96, align 8
  %98 = load i32, i32* %5, align 4
  %99 = sext i32 %98 to i64
  %100 = getelementptr inbounds i8, i8* %97, i64 %99
  %101 = load i8, i8* %100, align 1
  %102 = sext i8 %101 to i32
  %103 = icmp eq i32 %102, 32
  br i1 %103, label %115, label %104

104:                                              ; preds = %93
  %105 = load i32, i32* %4, align 4
  %106 = sext i32 %105 to i64
  %107 = getelementptr inbounds [100 x i8*], [100 x i8*]* %1, i64 0, i64 %106
  %108 = load i8*, i8** %107, align 8
  %109 = load i32, i32* %5, align 4
  %110 = sext i32 %109 to i64
  %111 = getelementptr inbounds i8, i8* %108, i64 %110
  %112 = load i8, i8* %111, align 1
  %113 = sext i8 %112 to i32
  %114 = icmp eq i32 %113, 10
  br i1 %114, label %115, label %123

115:                                              ; preds = %104, %93
  %116 = load i32, i32* %4, align 4
  %117 = sext i32 %116 to i64
  %118 = getelementptr inbounds [100 x i8*], [100 x i8*]* %1, i64 0, i64 %117
  %119 = load i8*, i8** %118, align 8
  %120 = load i32, i32* %5, align 4
  %121 = sext i32 %120 to i64
  %122 = getelementptr inbounds i8, i8* %119, i64 %121
  store i8 0, i8* %122, align 1
  br label %127

123:                                              ; preds = %104
  br label %124

124:                                              ; preds = %123
  %125 = load i32, i32* %5, align 4
  %126 = add nsw i32 %125, 1
  store i32 %126, i32* %5, align 4
  br label %93

127:                                              ; preds = %115
  br label %128

128:                                              ; preds = %127
  %129 = load i32, i32* %4, align 4
  %130 = add nsw i32 %129, 1
  store i32 %130, i32* %4, align 4
  br label %88

131:                                              ; preds = %88
  %132 = call noalias i8* @malloc(i64 100) #4
  store i8* %132, i8** %2, align 8
  %133 = call noalias i8* @malloc(i64 100) #4
  store i8* %133, i8** %3, align 8
  %134 = load i8*, i8** %2, align 8
  %135 = call i32 (i8*, ...) bitcast (i32 (...)* @gets to i32 (i8*, ...)*)(i8* %134)
  %136 = load i8*, i8** %3, align 8
  %137 = call i32 (i8*, ...) bitcast (i32 (...)* @gets to i32 (i8*, ...)*)(i8* %136)
  store i32 0, i32* %4, align 4
  br label %138

138:                                              ; preds = %173, %131
  %139 = load i32, i32* %4, align 4
  %140 = load i32, i32* %6, align 4
  %141 = icmp sle i32 %139, %140
  br i1 %141, label %142, label %176

142:                                              ; preds = %138
  %143 = load i32, i32* %4, align 4
  %144 = sext i32 %143 to i64
  %145 = getelementptr inbounds [100 x i8*], [100 x i8*]* %1, i64 0, i64 %144
  %146 = load i8*, i8** %145, align 8
  %147 = load i8*, i8** %2, align 8
  %148 = call i32 @strcmp(i8* %146, i8* %147) #5
  %149 = icmp ne i32 %148, 0
  br i1 %149, label %172, label %150

150:                                              ; preds = %142
  store i32 0, i32* %5, align 4
  br label %151

151:                                              ; preds = %162, %150
  %152 = load i32, i32* %5, align 4
  %153 = icmp slt i32 %152, 100
  br i1 %153, label %154, label %165

154:                                              ; preds = %151
  %155 = load i32, i32* %4, align 4
  %156 = sext i32 %155 to i64
  %157 = getelementptr inbounds [100 x i8*], [100 x i8*]* %1, i64 0, i64 %156
  %158 = load i8*, i8** %157, align 8
  %159 = load i32, i32* %5, align 4
  %160 = sext i32 %159 to i64
  %161 = getelementptr inbounds i8, i8* %158, i64 %160
  store i8 0, i8* %161, align 1
  br label %162

162:                                              ; preds = %154
  %163 = load i32, i32* %5, align 4
  %164 = add nsw i32 %163, 1
  store i32 %164, i32* %5, align 4
  br label %151

165:                                              ; preds = %151
  %166 = load i32, i32* %4, align 4
  %167 = sext i32 %166 to i64
  %168 = getelementptr inbounds [100 x i8*], [100 x i8*]* %1, i64 0, i64 %167
  %169 = load i8*, i8** %168, align 8
  %170 = load i8*, i8** %3, align 8
  %171 = call i8* @strcpy(i8* %169, i8* %170) #4
  br label %172

172:                                              ; preds = %165, %142
  br label %173

173:                                              ; preds = %172
  %174 = load i32, i32* %4, align 4
  %175 = add nsw i32 %174, 1
  store i32 %175, i32* %4, align 4
  br label %138

176:                                              ; preds = %138
  store i32 0, i32* %4, align 4
  br label %177

177:                                              ; preds = %187, %176
  %178 = load i32, i32* %4, align 4
  %179 = load i32, i32* %6, align 4
  %180 = icmp slt i32 %178, %179
  br i1 %180, label %181, label %190

181:                                              ; preds = %177
  %182 = load i32, i32* %4, align 4
  %183 = sext i32 %182 to i64
  %184 = getelementptr inbounds [100 x i8*], [100 x i8*]* %1, i64 0, i64 %183
  %185 = load i8*, i8** %184, align 8
  %186 = call i32 (i8*, ...) @printf(i8* getelementptr inbounds ([4 x i8], [4 x i8]* @.str.1, i64 0, i64 0), i8* %185)
  br label %187

187:                                              ; preds = %181
  %188 = load i32, i32* %4, align 4
  %189 = add nsw i32 %188, 1
  store i32 %189, i32* %4, align 4
  br label %177

190:                                              ; preds = %177
  %191 = load i32, i32* %6, align 4
  %192 = sext i32 %191 to i64
  %193 = getelementptr inbounds [100 x i8*], [100 x i8*]* %1, i64 0, i64 %192
  %194 = load i8*, i8** %193, align 8
  %195 = call i32 (i8*, ...) @printf(i8* getelementptr inbounds ([4 x i8], [4 x i8]* @.str.2, i64 0, i64 0), i8* %194)
  ret void
}

; Function Attrs: nounwind
declare dso_local noalias i8* @malloc(i64) #1

declare dso_local i32 @__isoc99_scanf(i8*, ...) #2

declare dso_local i32 @gets(...) #2

; Function Attrs: nounwind readonly
declare dso_local i32 @strcmp(i8*, i8*) #3

; Function Attrs: nounwind
declare dso_local i8* @strcpy(i8*, i8*) #1

declare dso_local i32 @printf(i8*, ...) #2


!llvm.module.flags = !{!0}
!llvm.ident = !{!1}

!0 = !{i32 1, !"wchar_size", i32 4}
!1 = !{!"clang version 10.0.0-4ubuntu1 "}
